ccopy_reg
_reconstructor
p0
(cgoogle.oauth2.credentials
Credentials
p1
c__builtin__
object
p2
Ntp3
Rp4
(dp5
S'_quota_project_id'
p6
NsS'_token_uri'
p7
Vhttps://oauth2.googleapis.com/token
p8
sS'_client_secret'
p9
VggqlHH6moYmJvu9suRQBIDPj
p10
sS'_id_token'
p11
NsS'token'
p12
Vya29.a0Ae4lvC2AYZNZBzBuiej87PZHUX_Qs4arXHHULrfX0YlR15Qgp5TYCL_wvb8EUZxN1pOUbuQLuHVyvd3cGf7h8HreYh1uKI0-wO8J-6kVuj3BgWu2tAoTNaym9umM5b_90JL2OskQ9YAC5O_OzERL9umOTD-LHY1rspD1
p13
sS'_refresh_token'
p14
V1//0gd7PWUqFhP_XCgYIARAAGBASNwF-L9Ir-U289DYifo6udPoc93zilRa1Eb-WFVhJekSHxs25aNar7lMIAxLVixRgz8CoiB1AGXA
p15
sS'_scopes'
p16
(lp17
S'https://www.googleapis.com/auth/spreadsheets.readonly'
p18
asS'_client_id'
p19
V183139845845-4ghf02p90pvjdemuqbubk9jgdti9oqgu.apps.googleusercontent.com
p20
sS'expiry'
p21
cdatetime
datetime
p22
(S'\x07\xe4\x05\x08\x05\x15\x0c\x06\xb6\x1c'
p23
tp24
Rp25
sb.